; Function Attrs: nounwind uwtable
define ptr @l_Lean_Compiler_LCNF_ToLCNF_toLCNF_visitNoConfusion___lambda__1(ptr noundef %0, ptr noundef %1, ptr noundef %2, ptr noundef %3, ptr noundef %4, ptr noundef %5, ptr noundef %6, ptr noundef %7, ptr noundef %8) #1 {
  %10 = getelementptr i8, ptr %0, i64 8
  %.val = load i64, ptr %10, align 8, !tbaa !12
  %11 = shl i64 %.val, 1
  %12 = or disjoint i64 %11, 1
  %13 = inttoptr i64 %12 to ptr
  %14 = tail call ptr @l_Array_toSubarray___rarg(ptr noundef %0, ptr noundef %1, ptr noundef nonnull %13) #5
  %15 = tail call ptr @l_Array_ofSubarray___rarg(ptr noundef %14) #5
  %16 = ptrtoint ptr %14 to i64
  %17 = and i64 %16, 1
  %.not = icmp eq i64 %17, 0
  br i1 %.not, label %18, label %lean_dec.exit17

18:                                               ; preds = %9
  %19 = load i32, ptr %14, align 4, !tbaa !4
  %20 = icmp sgt i32 %19, 1
  br i1 %20, label %21, label %23, !prof !11

21:                                               ; preds = %18
  %22 = add nsw i32 %19, -1
  store i32 %22, ptr %14, align 4, !tbaa !4
  br label %lean_dec.exit17

23:                                               ; preds = %18
  %.not.i = icmp eq i32 %19, 0
  br i1 %.not.i, label %lean_dec.exit17, label %24

24:                                               ; preds = %23
  tail call void @lean_dec_ref_cold(ptr noundef nonnull %14) #5
  br label %lean_dec.exit17

lean_dec.exit17:                                  ; preds = %24, %23, %21, %9
  %25 = tail call ptr @l_Lean_mkAppN(ptr noundef %2, ptr noundef %15) #5
  %26 = ptrtoint ptr %15 to i64
  %27 = and i64 %26, 1
  %.not20 = icmp eq i64 %27, 0
  br i1 %.not20, label %28, label %lean_dec.exit

28:                                               ; preds = %lean_dec.exit17
  %29 = load i32, ptr %15, align 4, !tbaa !4
  %30 = icmp sgt i32 %29, 1
  br i1 %30, label %31, label %33, !prof !11

31:                                               ; preds = %28
  %32 = add nsw i32 %29, -1
  store i32 %32, ptr %15, align 4, !tbaa !4
  br label %lean_dec.exit

33:                                               ; preds = %28
  %.not.i18 = icmp eq i32 %29, 0
  br i1 %.not.i18, label %lean_dec.exit, label %34

34:                                               ; preds = %33
  tail call void @lean_dec_ref_cold(ptr noundef nonnull %15) #5
  br label %lean_dec.exit

lean_dec.exit:                                    ; preds = %34, %33, %31, %lean_dec.exit17
  %35 = tail call ptr @l_Lean_Compiler_LCNF_ToLCNF_toLCNF_visit(ptr noundef %25, ptr noundef %3, ptr noundef %4, ptr noundef %5, ptr noundef %6, ptr noundef %7, ptr noundef %8)
  ret ptr %35
}